target datalayout = "e-m:e-p270:32:32-p271:32:32-p272:64:64-i64:64-i128:128-f80:128-n8:16:32:64-S128"
target triple = "x86_64-pc-linux-gnu"

%struct.mbedtls_ecjpake_context = type { i32, %struct.mbedtls_ecp_group, i32, i32, %struct.mbedtls_ecp_point, %struct.mbedtls_ecp_point, %struct.mbedtls_ecp_point, %struct.mbedtls_ecp_point, %struct.mbedtls_ecp_point, %struct.mbedtls_mpi, %struct.mbedtls_mpi, %struct.mbedtls_mpi }
%struct.mbedtls_ecp_group = type { i32, %struct.mbedtls_mpi, %struct.mbedtls_mpi, %struct.mbedtls_mpi, %struct.mbedtls_ecp_point, %struct.mbedtls_mpi, i64, i64, i32, ptr, ptr, ptr, ptr, ptr, i64 }
%struct.mbedtls_ecp_point = type { %struct.mbedtls_mpi, %struct.mbedtls_mpi, %struct.mbedtls_mpi }
%struct.mbedtls_mpi = type { ptr, i16, i16 }

; Function Attrs: nounwind uwtable
define internal i32 @ecjpake_test_load(ptr noundef %0, ptr noundef %1, i64 noundef %2, ptr noundef %3, i64 noundef %4) #0 {
  %6 = alloca ptr, align 8
  %7 = alloca ptr, align 8
  %8 = alloca i64, align 8
  %9 = alloca ptr, align 8
  %10 = alloca i64, align 8
  %11 = alloca i32, align 4
  store ptr %0, ptr %6, align 8, !tbaa !3
  store ptr %1, ptr %7, align 8, !tbaa !20
  store i64 %2, ptr %8, align 8, !tbaa !22
  store ptr %3, ptr %9, align 8, !tbaa !20
  store i64 %4, ptr %10, align 8, !tbaa !22
  call void @llvm.lifetime.start.p0(i64 4, ptr %11) #9
  store i32 -110, ptr %11, align 4, !tbaa !19
  br label %12

12:                                               ; preds = %5
  %13 = load ptr, ptr %6, align 8, !tbaa !3
  %14 = getelementptr inbounds nuw %struct.mbedtls_ecjpake_context, ptr %13, i32 0, i32 9
  %15 = load ptr, ptr %7, align 8, !tbaa !20
  %16 = load i64, ptr %8, align 8, !tbaa !22
  %17 = call i32 @mbedtls_mpi_read_binary(ptr noundef %14, ptr noundef %15, i64 noundef %16)
  store i32 %17, ptr %11, align 4, !tbaa !19
  %18 = icmp ne i32 %17, 0
  br i1 %18, label %19, label %20

19:                                               ; preds = %12
  br label %66

20:                                               ; preds = %12
  br label %21

21:                                               ; preds = %20
  br label %22

22:                                               ; preds = %21
  br label %23

23:                                               ; preds = %22
  %24 = load ptr, ptr %6, align 8, !tbaa !3
  %25 = getelementptr inbounds nuw %struct.mbedtls_ecjpake_context, ptr %24, i32 0, i32 10
  %26 = load ptr, ptr %9, align 8, !tbaa !20
  %27 = load i64, ptr %10, align 8, !tbaa !22
  %28 = call i32 @mbedtls_mpi_read_binary(ptr noundef %25, ptr noundef %26, i64 noundef %27)
  store i32 %28, ptr %11, align 4, !tbaa !19
  %29 = icmp ne i32 %28, 0
  br i1 %29, label %30, label %31

30:                                               ; preds = %23
  br label %66

31:                                               ; preds = %23
  br label %32

32:                                               ; preds = %31
  br label %33

33:                                               ; preds = %32
  br label %34

34:                                               ; preds = %33
  %35 = load ptr, ptr %6, align 8, !tbaa !3
  %36 = getelementptr inbounds nuw %struct.mbedtls_ecjpake_context, ptr %35, i32 0, i32 1
  %37 = load ptr, ptr %6, align 8, !tbaa !3
  %38 = getelementptr inbounds nuw %struct.mbedtls_ecjpake_context, ptr %37, i32 0, i32 4
  %39 = load ptr, ptr %6, align 8, !tbaa !3
  %40 = getelementptr inbounds nuw %struct.mbedtls_ecjpake_context, ptr %39, i32 0, i32 9
  %41 = load ptr, ptr %6, align 8, !tbaa !3
  %42 = getelementptr inbounds nuw %struct.mbedtls_ecjpake_context, ptr %41, i32 0, i32 1
  %43 = getelementptr inbounds nuw %struct.mbedtls_ecp_group, ptr %42, i32 0, i32 4
  %44 = call i32 @mbedtls_ecp_mul(ptr noundef %36, ptr noundef %38, ptr noundef %40, ptr noundef %43, ptr noundef @self_test_rng, ptr noundef null)
  store i32 %44, ptr %11, align 4, !tbaa !19
  %45 = icmp ne i32 %44, 0
  br i1 %45, label %46, label %47

46:                                               ; preds = %34
  br label %66

47:                                               ; preds = %34
  br label %48

48:                                               ; preds = %47
  br label %49

49:                                               ; preds = %48
  br label %50

50:                                               ; preds = %49
  %51 = load ptr, ptr %6, align 8, !tbaa !3
  %52 = getelementptr inbounds nuw %struct.mbedtls_ecjpake_context, ptr %51, i32 0, i32 1
  %53 = load ptr, ptr %6, align 8, !tbaa !3
  %54 = getelementptr inbounds nuw %struct.mbedtls_ecjpake_context, ptr %53, i32 0, i32 5
  %55 = load ptr, ptr %6, align 8, !tbaa !3
  %56 = getelementptr inbounds nuw %struct.mbedtls_ecjpake_context, ptr %55, i32 0, i32 10
  %57 = load ptr, ptr %6, align 8, !tbaa !3
  %58 = getelementptr inbounds nuw %struct.mbedtls_ecjpake_context, ptr %57, i32 0, i32 1
  %59 = getelementptr inbounds nuw %struct.mbedtls_ecp_group, ptr %58, i32 0, i32 4
  %60 = call i32 @mbedtls_ecp_mul(ptr noundef %52, ptr noundef %54, ptr noundef %56, ptr noundef %59, ptr noundef @self_test_rng, ptr noundef null)
  store i32 %60, ptr %11, align 4, !tbaa !19
  %61 = icmp ne i32 %60, 0
  br i1 %61, label %62, label %63

62:                                               ; preds = %50
  br label %66

63:                                               ; preds = %50
  br label %64

64:                                               ; preds = %63
  br label %65

65:                                               ; preds = %64
  br label %66

66:                                               ; preds = %65, %62, %46, %30, %19
  %67 = load i32, ptr %11, align 4, !tbaa !19
  call void @llvm.lifetime.end.p0(i64 4, ptr %11) #9
  ret i32 %67
}