; Function Attrs: nounwind uwtable
define internal fastcc i32 @ecjpake_test_load(ptr noundef nonnull %0, ptr noundef %1, ptr noundef %2) unnamed_addr #0 {
  %4 = getelementptr inbounds nuw i8, ptr %0, i64 448
  %5 = tail call i32 @mbedtls_mpi_read_binary(ptr noundef nonnull %4, ptr noundef %1, i64 noundef 32) #15
  %.not = icmp eq i32 %5, 0
  br i1 %.not, label %6, label %17

6:                                                ; preds = %3
  %7 = getelementptr inbounds nuw i8, ptr %0, i64 464
  %8 = tail call i32 @mbedtls_mpi_read_binary(ptr noundef nonnull %7, ptr noundef %2, i64 noundef 32) #15
  %.not17 = icmp eq i32 %8, 0
  br i1 %.not17, label %9, label %17

9:                                                ; preds = %6
  %10 = getelementptr inbounds nuw i8, ptr %0, i64 8
  %11 = getelementptr inbounds nuw i8, ptr %0, i64 208
  %12 = getelementptr inbounds nuw i8, ptr %0, i64 64
  %13 = tail call i32 @mbedtls_ecp_mul(ptr noundef nonnull %10, ptr noundef nonnull %11, ptr noundef nonnull %4, ptr noundef nonnull %12, ptr noundef nonnull @self_test_rng, ptr noundef null) #15
  %.not18 = icmp eq i32 %13, 0
  br i1 %.not18, label %14, label %17

14:                                               ; preds = %9
  %15 = getelementptr inbounds nuw i8, ptr %0, i64 256
  %16 = tail call i32 @mbedtls_ecp_mul(ptr noundef nonnull %10, ptr noundef nonnull %15, ptr noundef nonnull %7, ptr noundef nonnull %12, ptr noundef nonnull @self_test_rng, ptr noundef null) #15
  br label %17

17:                                               ; preds = %14, %9, %6, %3
  %.0 = phi i32 [ %5, %3 ], [ %8, %6 ], [ %13, %9 ], [ %16, %14 ]
  ret i32 %.0
}